target datalayout = "e-m:e-p270:32:32-p271:32:32-p272:64:64-i64:64-i128:128-f80:128-n8:16:32:64-S128"
target triple = "x86_64-pc-linux-gnu"

%"class.std::__cxx11::basic_string" = type { %"struct.std::__cxx11::basic_string<char>::_Alloc_hider", i64, %union.anon }
%"struct.std::__cxx11::basic_string<char>::_Alloc_hider" = type { ptr }
%union.anon = type { i64, [8 x i8] }

@_ZN8tinygltfL12base64_charsB5cxx11E = internal global %"class.std::__cxx11::basic_string" zeroinitializer, align 8

; Function Attrs: mustprogress nounwind uwtable
define internal noundef zeroext i1 @_ZN8tinygltfL9is_base64Eh(i8 noundef zeroext %0) #5 {
  %2 = alloca i8, align 1
  store i8 %0, ptr %2, align 1
  %3 = load i8, ptr %2, align 1
  %4 = zext i8 %3 to i32
  %5 = call i32 @isalnum(i32 noundef %4) #25
  %6 = icmp ne i32 %5, 0
  br i1 %6, label %15, label %7

7:                                                ; preds = %1
  %8 = load i8, ptr %2, align 1
  %9 = zext i8 %8 to i32
  %10 = icmp eq i32 %9, 43
  br i1 %10, label %15, label %11

11:                                               ; preds = %7
  %12 = load i8, ptr %2, align 1
  %13 = zext i8 %12 to i32
  %14 = icmp eq i32 %13, 47
  br label %15

15:                                               ; preds = %11, %7, %1
  %16 = phi i1 [ true, %7 ], [ true, %1 ], [ %14, %11 ]
  ret i1 %16
}

; Function Attrs: mustprogress uwtable
define dso_local void @_ZN8tinygltf13base64_decodeERKNSt7__cxx1112basic_stringIcSt11char_traitsIcESaIcEEE(ptr dead_on_unwind noalias writable sret(%"class.std::__cxx11::basic_string") align 8 %0, ptr noundef nonnull align 8 dereferenceable(32) %1) #4 personality ptr @__gxx_personality_v0 {
  %3 = alloca ptr, align 8
  %4 = alloca ptr, align 8
  %5 = alloca i32, align 4
  %6 = alloca i32, align 4
  %7 = alloca i32, align 4
  %8 = alloca i32, align 4
  %9 = alloca [4 x i8], align 1
  %10 = alloca [3 x i8], align 1
  %11 = alloca i1, align 1
  %12 = alloca ptr, align 8
  %13 = alloca i32, align 4
  store ptr %0, ptr %3, align 8
  store ptr %1, ptr %4, align 8
  %14 = load ptr, ptr %4, align 8
  %15 = call noundef i64 @_ZNKSt7__cxx1112basic_stringIcSt11char_traitsIcESaIcEE4sizeEv(ptr noundef nonnull align 8 dereferenceable(32) %14) #3
  %16 = trunc i64 %15 to i32
  store i32 %16, ptr %5, align 4
  store i32 0, ptr %6, align 4
  store i32 0, ptr %7, align 4
  store i32 0, ptr %8, align 4
  store i1 false, ptr %11, align 1
  call void @_ZNSt7__cxx1112basic_stringIcSt11char_traitsIcESaIcEEC1Ev(ptr noundef nonnull align 8 dereferenceable(32) %0) #3
  br label %17

17:                                               ; preds = %125, %2
  %18 = load i32, ptr %5, align 4
  %19 = add nsw i32 %18, -1
  store i32 %19, ptr %5, align 4
  %20 = icmp ne i32 %18, 0
  br i1 %20, label %21, label %37

21:                                               ; preds = %17
  %22 = load ptr, ptr %4, align 8
  %23 = load i32, ptr %8, align 4
  %24 = sext i32 %23 to i64
  %25 = call noundef nonnull align 1 dereferenceable(1) ptr @_ZNKSt7__cxx1112basic_stringIcSt11char_traitsIcESaIcEEixEm(ptr noundef nonnull align 8 dereferenceable(32) %22, i64 noundef %24) #3
  %26 = load i8, ptr %25, align 1
  %27 = sext i8 %26 to i32
  %28 = icmp ne i32 %27, 61
  br i1 %28, label %29, label %37

29:                                               ; preds = %21
  %30 = load ptr, ptr %4, align 8
  %31 = load i32, ptr %8, align 4
  %32 = sext i32 %31 to i64
  %33 = call noundef nonnull align 1 dereferenceable(1) ptr @_ZNKSt7__cxx1112basic_stringIcSt11char_traitsIcESaIcEEixEm(ptr noundef nonnull align 8 dereferenceable(32) %30, i64 noundef %32) #3
  %34 = load i8, ptr %33, align 1
  %35 = invoke noundef zeroext i1 @_ZN8tinygltfL9is_base64Eh(i8 noundef zeroext %34)
          to label %36 unwind label %70

36:                                               ; preds = %29
  br label %37

37:                                               ; preds = %36, %21, %17
  %38 = phi i1 [ false, %21 ], [ false, %17 ], [ %35, %36 ]
  br i1 %38, label %39, label %126

39:                                               ; preds = %37
  %40 = load ptr, ptr %4, align 8
  %41 = load i32, ptr %8, align 4
  %42 = sext i32 %41 to i64
  %43 = call noundef nonnull align 1 dereferenceable(1) ptr @_ZNKSt7__cxx1112basic_stringIcSt11char_traitsIcESaIcEEixEm(ptr noundef nonnull align 8 dereferenceable(32) %40, i64 noundef %42) #3
  %44 = load i8, ptr %43, align 1
  %45 = load i32, ptr %6, align 4
  %46 = add nsw i32 %45, 1
  store i32 %46, ptr %6, align 4
  %47 = sext i32 %45 to i64
  %48 = getelementptr inbounds [4 x i8], ptr %9, i64 0, i64 %47
  store i8 %44, ptr %48, align 1
  %49 = load i32, ptr %8, align 4
  %50 = add nsw i32 %49, 1
  store i32 %50, ptr %8, align 4
  %51 = load i32, ptr %6, align 4
  %52 = icmp eq i32 %51, 4
  br i1 %52, label %53, label %125

53:                                               ; preds = %39
  store i32 0, ptr %6, align 4
  br label %54

54:                                               ; preds = %67, %53
  %55 = load i32, ptr %6, align 4
  %56 = icmp slt i32 %55, 4
  br i1 %56, label %57, label %74

57:                                               ; preds = %54
  %58 = load i32, ptr %6, align 4
  %59 = sext i32 %58 to i64
  %60 = getelementptr inbounds [4 x i8], ptr %9, i64 0, i64 %59
  %61 = load i8, ptr %60, align 1
  %62 = call noundef i64 @_ZNKSt7__cxx1112basic_stringIcSt11char_traitsIcESaIcEE4findEcm(ptr noundef nonnull align 8 dereferenceable(32) @_ZN8tinygltfL12base64_charsB5cxx11E, i8 noundef signext %61, i64 noundef 0) #3
  %63 = trunc i64 %62 to i8
  %64 = load i32, ptr %6, align 4
  %65 = sext i32 %64 to i64
  %66 = getelementptr inbounds [4 x i8], ptr %9, i64 0, i64 %65
  store i8 %63, ptr %66, align 1
  br label %67

67:                                               ; preds = %57
  %68 = load i32, ptr %6, align 4
  %69 = add nsw i32 %68, 1
  store i32 %69, ptr %6, align 4
  br label %54, !llvm.loop !13

70:                                               ; preds = %200, %114, %29
  %71 = landingpad { ptr, i32 }
          cleanup
  %72 = extractvalue { ptr, i32 } %71, 0
  store ptr %72, ptr %12, align 8
  %73 = extractvalue { ptr, i32 } %71, 1
  store i32 %73, ptr %13, align 4
  call void @_ZNSt7__cxx1112basic_stringIcSt11char_traitsIcESaIcEED1Ev(ptr noundef nonnull align 8 dereferenceable(32) %0) #3
  br label %215

74:                                               ; preds = %54
  %75 = getelementptr inbounds [4 x i8], ptr %9, i64 0, i64 0
  %76 = load i8, ptr %75, align 1
  %77 = zext i8 %76 to i32
  %78 = shl i32 %77, 2
  %79 = getelementptr inbounds [4 x i8], ptr %9, i64 0, i64 1
  %80 = load i8, ptr %79, align 1
  %81 = zext i8 %80 to i32
  %82 = and i32 %81, 48
  %83 = ashr i32 %82, 4
  %84 = add nsw i32 %78, %83
  %85 = trunc i32 %84 to i8
  %86 = getelementptr inbounds [3 x i8], ptr %10, i64 0, i64 0
  store i8 %85, ptr %86, align 1
  %87 = getelementptr inbounds [4 x i8], ptr %9, i64 0, i64 1
  %88 = load i8, ptr %87, align 1
  %89 = zext i8 %88 to i32
  %90 = and i32 %89, 15
  %91 = shl i32 %90, 4
  %92 = getelementptr inbounds [4 x i8], ptr %9, i64 0, i64 2
  %93 = load i8, ptr %92, align 1
  %94 = zext i8 %93 to i32
  %95 = and i32 %94, 60
  %96 = ashr i32 %95, 2
  %97 = add nsw i32 %91, %96
  %98 = trunc i32 %97 to i8
  %99 = getelementptr inbounds [3 x i8], ptr %10, i64 0, i64 1
  store i8 %98, ptr %99, align 1
  %100 = getelementptr inbounds [4 x i8], ptr %9, i64 0, i64 2
  %101 = load i8, ptr %100, align 1
  %102 = zext i8 %101 to i32
  %103 = and i32 %102, 3
  %104 = shl i32 %103, 6
  %105 = getelementptr inbounds [4 x i8], ptr %9, i64 0, i64 3
  %106 = load i8, ptr %105, align 1
  %107 = zext i8 %106 to i32
  %108 = add nsw i32 %104, %107
  %109 = trunc i32 %108 to i8
  %110 = getelementptr inbounds [3 x i8], ptr %10, i64 0, i64 2
  store i8 %109, ptr %110, align 1
  store i32 0, ptr %6, align 4
  br label %111

111:                                              ; preds = %121, %74
  %112 = load i32, ptr %6, align 4
  %113 = icmp slt i32 %112, 3
  br i1 %113, label %114, label %124

114:                                              ; preds = %111
  %115 = load i32, ptr %6, align 4
  %116 = sext i32 %115 to i64
  %117 = getelementptr inbounds [3 x i8], ptr %10, i64 0, i64 %116
  %118 = load i8, ptr %117, align 1
  %119 = invoke noundef nonnull align 8 dereferenceable(32) ptr @_ZNSt7__cxx1112basic_stringIcSt11char_traitsIcESaIcEEpLEc(ptr noundef nonnull align 8 dereferenceable(32) %0, i8 noundef signext %118)
          to label %120 unwind label %70

120:                                              ; preds = %114
  br label %121

121:                                              ; preds = %120
  %122 = load i32, ptr %6, align 4
  %123 = add nsw i32 %122, 1
  store i32 %123, ptr %6, align 4
  br label %111, !llvm.loop !14

124:                                              ; preds = %111
  store i32 0, ptr %6, align 4
  br label %125

125:                                              ; preds = %124, %39
  br label %17, !llvm.loop !15

126:                                              ; preds = %37
  %127 = load i32, ptr %6, align 4
  %128 = icmp ne i32 %127, 0
  br i1 %128, label %129, label %211

129:                                              ; preds = %126
  %130 = load i32, ptr %6, align 4
  store i32 %130, ptr %7, align 4
  br label %131

131:                                              ; preds = %138, %129
  %132 = load i32, ptr %7, align 4
  %133 = icmp slt i32 %132, 4
  br i1 %133, label %134, label %141

134:                                              ; preds = %131
  %135 = load i32, ptr %7, align 4
  %136 = sext i32 %135 to i64
  %137 = getelementptr inbounds [4 x i8], ptr %9, i64 0, i64 %136
  store i8 0, ptr %137, align 1
  br label %138

138:                                              ; preds = %134
  %139 = load i32, ptr %7, align 4
  %140 = add nsw i32 %139, 1
  store i32 %140, ptr %7, align 4
  br label %131, !llvm.loop !16

141:                                              ; preds = %131
  store i32 0, ptr %7, align 4
  br label %142

142:                                              ; preds = %155, %141
  %143 = load i32, ptr %7, align 4
  %144 = icmp slt i32 %143, 4
  br i1 %144, label %145, label %158

145:                                              ; preds = %142
  %146 = load i32, ptr %7, align 4
  %147 = sext i32 %146 to i64
  %148 = getelementptr inbounds [4 x i8], ptr %9, i64 0, i64 %147
  %149 = load i8, ptr %148, align 1
  %150 = call noundef i64 @_ZNKSt7__cxx1112basic_stringIcSt11char_traitsIcESaIcEE4findEcm(ptr noundef nonnull align 8 dereferenceable(32) @_ZN8tinygltfL12base64_charsB5cxx11E, i8 noundef signext %149, i64 noundef 0) #3
  %151 = trunc i64 %150 to i8
  %152 = load i32, ptr %7, align 4
  %153 = sext i32 %152 to i64
  %154 = getelementptr inbounds [4 x i8], ptr %9, i64 0, i64 %153
  store i8 %151, ptr %154, align 1
  br label %155

155:                                              ; preds = %145
  %156 = load i32, ptr %7, align 4
  %157 = add nsw i32 %156, 1
  store i32 %157, ptr %7, align 4
  br label %142, !llvm.loop !17

158:                                              ; preds = %142
  %159 = getelementptr inbounds [4 x i8], ptr %9, i64 0, i64 0
  %160 = load i8, ptr %159, align 1
  %161 = zext i8 %160 to i32
  %162 = shl i32 %161, 2
  %163 = getelementptr inbounds [4 x i8], ptr %9, i64 0, i64 1
  %164 = load i8, ptr %163, align 1
  %165 = zext i8 %164 to i32
  %166 = and i32 %165, 48
  %167 = ashr i32 %166, 4
  %168 = add nsw i32 %162, %167
  %169 = trunc i32 %168 to i8
  %170 = getelementptr inbounds [3 x i8], ptr %10, i64 0, i64 0
  store i8 %169, ptr %170, align 1
  %171 = getelementptr inbounds [4 x i8], ptr %9, i64 0, i64 1
  %172 = load i8, ptr %171, align 1
  %173 = zext i8 %172 to i32
  %174 = and i32 %173, 15
  %175 = shl i32 %174, 4
  %176 = getelementptr inbounds [4 x i8], ptr %9, i64 0, i64 2
  %177 = load i8, ptr %176, align 1
  %178 = zext i8 %177 to i32
  %179 = and i32 %178, 60
  %180 = ashr i32 %179, 2
  %181 = add nsw i32 %175, %180
  %182 = trunc i32 %181 to i8
  %183 = getelementptr inbounds [3 x i8], ptr %10, i64 0, i64 1
  store i8 %182, ptr %183, align 1
  %184 = getelementptr inbounds [4 x i8], ptr %9, i64 0, i64 2
  %185 = load i8, ptr %184, align 1
  %186 = zext i8 %185 to i32
  %187 = and i32 %186, 3
  %188 = shl i32 %187, 6
  %189 = getelementptr inbounds [4 x i8], ptr %9, i64 0, i64 3
  %190 = load i8, ptr %189, align 1
  %191 = zext i8 %190 to i32
  %192 = add nsw i32 %188, %191
  %193 = trunc i32 %192 to i8
  %194 = getelementptr inbounds [3 x i8], ptr %10, i64 0, i64 2
  store i8 %193, ptr %194, align 1
  store i32 0, ptr %7, align 4
  br label %195

195:                                              ; preds = %207, %158
  %196 = load i32, ptr %7, align 4
  %197 = load i32, ptr %6, align 4
  %198 = sub nsw i32 %197, 1
  %199 = icmp slt i32 %196, %198
  br i1 %199, label %200, label %210

200:                                              ; preds = %195
  %201 = load i32, ptr %7, align 4
  %202 = sext i32 %201 to i64
  %203 = getelementptr inbounds [3 x i8], ptr %10, i64 0, i64 %202
  %204 = load i8, ptr %203, align 1
  %205 = invoke noundef nonnull align 8 dereferenceable(32) ptr @_ZNSt7__cxx1112basic_stringIcSt11char_traitsIcESaIcEEpLEc(ptr noundef nonnull align 8 dereferenceable(32) %0, i8 noundef signext %204)
          to label %206 unwind label %70

206:                                              ; preds = %200
  br label %207

207:                                              ; preds = %206
  %208 = load i32, ptr %7, align 4
  %209 = add nsw i32 %208, 1
  store i32 %209, ptr %7, align 4
  br label %195, !llvm.loop !18

210:                                              ; preds = %195
  br label %211

211:                                              ; preds = %210, %126
  store i1 true, ptr %11, align 1
  %212 = load i1, ptr %11, align 1
  br i1 %212, label %214, label %213

213:                                              ; preds = %211
  call void @_ZNSt7__cxx1112basic_stringIcSt11char_traitsIcESaIcEED1Ev(ptr noundef nonnull align 8 dereferenceable(32) %0) #3
  br label %214

214:                                              ; preds = %213, %211
  ret void

215:                                              ; preds = %70
  %216 = load ptr, ptr %12, align 8
  %217 = load i32, ptr %13, align 4
  %218 = insertvalue { ptr, i32 } poison, ptr %216, 0
  %219 = insertvalue { ptr, i32 } %218, i32 %217, 1
  resume { ptr, i32 } %219
}