; Function Attrs: mustprogress uwtable
define dso_local void @_ZN8tinygltf13base64_decodeERKNSt7__cxx1112basic_stringIcSt11char_traitsIcESaIcEEE(ptr dead_on_unwind noalias writable sret(%"class.std::__cxx11::basic_string") align 8 %0, ptr noundef nonnull align 8 dereferenceable(32) %1) local_unnamed_addr #3 personality ptr @__gxx_personality_v0 {
  %3 = alloca [4 x i8], align 1
  %4 = alloca [3 x i8], align 1
  %5 = tail call noundef i64 @_ZNKSt7__cxx1112basic_stringIcSt11char_traitsIcESaIcEE4sizeEv(ptr noundef nonnull align 8 dereferenceable(32) %1) #30
  %6 = trunc i64 %5 to i32
  tail call void @_ZNSt7__cxx1112basic_stringIcSt11char_traitsIcESaIcEEC1Ev(ptr noundef nonnull align 8 dereferenceable(32) %0) #30
  %.not48 = icmp eq i32 %6, 0
  br i1 %.not48, label %.loopexit, label %.lr.ph

.lr.ph:                                           ; preds = %2
  %7 = getelementptr inbounds i8, ptr %3, i64 1
  %8 = getelementptr inbounds i8, ptr %3, i64 2
  %9 = getelementptr inbounds i8, ptr %4, i64 1
  %10 = getelementptr inbounds i8, ptr %3, i64 3
  %11 = getelementptr inbounds i8, ptr %4, i64 2
  br label %12

12:                                               ; preds = %.lr.ph, %.loopexit43
  %indvars.iv65 = phi i64 [ 0, %.lr.ph ], [ %indvars.iv.next66, %.loopexit43 ]
  %.in = phi i32 [ %6, %.lr.ph ], [ %13, %.loopexit43 ]
  %.03350 = phi i32 [ 0, %.lr.ph ], [ %.3, %.loopexit43 ]
  %13 = add nsw i32 %.in, -1
  %14 = tail call noundef nonnull align 1 dereferenceable(1) ptr @_ZNKSt7__cxx1112basic_stringIcSt11char_traitsIcESaIcEEixEm(ptr noundef nonnull align 8 dereferenceable(32) %1, i64 noundef %indvars.iv65) #30
  %15 = load i8, ptr %14, align 1
  %.not39 = icmp eq i8 %15, 61
  br i1 %.not39, label %.critedge, label %16

16:                                               ; preds = %12
  %17 = tail call noundef nonnull align 1 dereferenceable(1) ptr @_ZNKSt7__cxx1112basic_stringIcSt11char_traitsIcESaIcEEixEm(ptr noundef nonnull align 8 dereferenceable(32) %1, i64 noundef %indvars.iv65) #30
  %18 = load i8, ptr %17, align 1
  %19 = zext i8 %18 to i32
  %20 = tail call i32 @isalnum(i32 noundef %19) #31
  %21 = icmp ne i32 %20, 0
  %22 = and i8 %18, -5
  %23 = icmp eq i8 %22, 43
  %spec.select.i = or i1 %23, %21
  br i1 %spec.select.i, label %24, label %.critedge

24:                                               ; preds = %16
  %25 = tail call noundef nonnull align 1 dereferenceable(1) ptr @_ZNKSt7__cxx1112basic_stringIcSt11char_traitsIcESaIcEEixEm(ptr noundef nonnull align 8 dereferenceable(32) %1, i64 noundef %indvars.iv65) #30
  %26 = load i8, ptr %25, align 1
  %27 = add nsw i32 %.03350, 1
  %28 = sext i32 %.03350 to i64
  %29 = getelementptr inbounds [4 x i8], ptr %3, i64 0, i64 %28
  store i8 %26, ptr %29, align 1
  %indvars.iv.next66 = add nuw nsw i64 %indvars.iv65, 1
  %30 = icmp eq i32 %27, 4
  br i1 %30, label %.preheader44, label %.loopexit43

.preheader44:                                     ; preds = %24, %.preheader44
  %indvars.iv = phi i64 [ %indvars.iv.next, %.preheader44 ], [ 0, %24 ]
  %31 = getelementptr inbounds [4 x i8], ptr %3, i64 0, i64 %indvars.iv
  %32 = load i8, ptr %31, align 1
  %33 = tail call noundef i64 @_ZNKSt7__cxx1112basic_stringIcSt11char_traitsIcESaIcEE4findEcm(ptr noundef nonnull align 8 dereferenceable(32) @_ZN8tinygltfL12base64_charsB5cxx11E, i8 noundef signext %32, i64 noundef 0) #30
  %34 = trunc i64 %33 to i8
  store i8 %34, ptr %31, align 1
  %indvars.iv.next = add nuw nsw i64 %indvars.iv, 1
  %exitcond.not = icmp eq i64 %indvars.iv.next, 4
  br i1 %exitcond.not, label %36, label %.preheader44, !llvm.loop !38

.loopexit41:                                      ; preds = %.lr.ph59
  %lpad.loopexit = landingpad { ptr, i32 }
          cleanup
  br label %35

.loopexit.split-lp:                               ; preds = %51
  %lpad.loopexit.split-lp = landingpad { ptr, i32 }
          cleanup
  br label %35

35:                                               ; preds = %.loopexit.split-lp, %.loopexit41
  %lpad.phi = phi { ptr, i32 } [ %lpad.loopexit, %.loopexit41 ], [ %lpad.loopexit.split-lp, %.loopexit.split-lp ]
  tail call void @_ZNSt7__cxx1112basic_stringIcSt11char_traitsIcESaIcEED1Ev(ptr noundef nonnull align 8 dereferenceable(32) %0) #30
  resume { ptr, i32 } %lpad.phi

36:                                               ; preds = %.preheader44
  %37 = load i8, ptr %3, align 1
  %38 = shl i8 %37, 2
  %39 = load i8, ptr %7, align 1
  %40 = lshr i8 %39, 4
  %41 = and i8 %40, 3
  %42 = or disjoint i8 %41, %38
  store i8 %42, ptr %4, align 1
  %43 = shl i8 %39, 4
  %44 = load i8, ptr %8, align 1
  %45 = lshr i8 %44, 2
  %46 = and i8 %45, 15
  %47 = or disjoint i8 %46, %43
  store i8 %47, ptr %9, align 1
  %48 = shl i8 %44, 6
  %49 = load i8, ptr %10, align 1
  %50 = add i8 %49, %48
  store i8 %50, ptr %11, align 1
  br label %51

51:                                               ; preds = %36, %55
  %indvars.iv61 = phi i64 [ 0, %36 ], [ %indvars.iv.next62, %55 ]
  %52 = getelementptr inbounds [3 x i8], ptr %4, i64 0, i64 %indvars.iv61
  %53 = load i8, ptr %52, align 1
  %54 = invoke noundef nonnull align 8 dereferenceable(32) ptr @_ZNSt7__cxx1112basic_stringIcSt11char_traitsIcESaIcEEpLEc(ptr noundef nonnull align 8 dereferenceable(32) %0, i8 noundef signext %53)
          to label %55 unwind label %.loopexit.split-lp

55:                                               ; preds = %51
  %indvars.iv.next62 = add nuw nsw i64 %indvars.iv61, 1
  %exitcond64.not = icmp eq i64 %indvars.iv.next62, 3
  br i1 %exitcond64.not, label %.loopexit43, label %51, !llvm.loop !39

.loopexit43:                                      ; preds = %55, %24
  %.3 = phi i32 [ %27, %24 ], [ 0, %55 ]
  %.not = icmp eq i32 %13, 0
  br i1 %.not, label %.critedge, label %12, !llvm.loop !40

.critedge:                                        ; preds = %16, %.loopexit43, %12
  %.033.lcssa = phi i32 [ %.03350, %16 ], [ %.3, %.loopexit43 ], [ %.03350, %12 ]
  %.not40 = icmp eq i32 %.033.lcssa, 0
  br i1 %.not40, label %.loopexit, label %.preheader42

.preheader42:                                     ; preds = %.critedge
  %56 = icmp slt i32 %.033.lcssa, 4
  br i1 %56, label %.lr.ph56.preheader, label %.preheader.preheader

.lr.ph56.preheader:                               ; preds = %.preheader42
  %57 = sext i32 %.033.lcssa to i64
  %scevgep = getelementptr i8, ptr %3, i64 %57
  %58 = sub i32 3, %.033.lcssa
  %59 = zext i32 %58 to i64
  %60 = add nuw nsw i64 %59, 1
  call void @llvm.memset.p0.i64(ptr noundef nonnull align 1 dereferenceable(1) %scevgep, i8 0, i64 %60, i1 false)
  br label %.preheader.preheader

.preheader.preheader:                             ; preds = %.lr.ph56.preheader, %.preheader42
  br label %.preheader

.preheader:                                       ; preds = %.preheader.preheader, %.preheader
  %indvars.iv71 = phi i64 [ %indvars.iv.next72, %.preheader ], [ 0, %.preheader.preheader ]
  %61 = getelementptr inbounds [4 x i8], ptr %3, i64 0, i64 %indvars.iv71
  %62 = load i8, ptr %61, align 1
  %63 = tail call noundef i64 @_ZNKSt7__cxx1112basic_stringIcSt11char_traitsIcESaIcEE4findEcm(ptr noundef nonnull align 8 dereferenceable(32) @_ZN8tinygltfL12base64_charsB5cxx11E, i8 noundef signext %62, i64 noundef 0) #30
  %64 = trunc i64 %63 to i8
  store i8 %64, ptr %61, align 1
  %indvars.iv.next72 = add nuw nsw i64 %indvars.iv71, 1
  %exitcond74.not = icmp eq i64 %indvars.iv.next72, 4
  br i1 %exitcond74.not, label %65, label %.preheader, !llvm.loop !41

65:                                               ; preds = %.preheader
  %66 = load i8, ptr %3, align 1
  %67 = shl i8 %66, 2
  %68 = getelementptr inbounds i8, ptr %3, i64 1
  %69 = load i8, ptr %68, align 1
  %70 = lshr i8 %69, 4
  %71 = and i8 %70, 3
  %72 = or disjoint i8 %71, %67
  store i8 %72, ptr %4, align 1
  %73 = shl i8 %69, 4
  %74 = getelementptr inbounds i8, ptr %3, i64 2
  %75 = load i8, ptr %74, align 1
  %76 = lshr i8 %75, 2
  %77 = and i8 %76, 15
  %78 = or disjoint i8 %77, %73
  %79 = getelementptr inbounds i8, ptr %4, i64 1
  store i8 %78, ptr %79, align 1
  %80 = shl i8 %75, 6
  %81 = getelementptr inbounds i8, ptr %3, i64 3
  %82 = load i8, ptr %81, align 1
  %83 = add i8 %82, %80
  %84 = getelementptr inbounds i8, ptr %4, i64 2
  store i8 %83, ptr %84, align 1
  %85 = icmp sgt i32 %.033.lcssa, 1
  br i1 %85, label %.lr.ph59.preheader, label %.loopexit

.lr.ph59.preheader:                               ; preds = %65
  %86 = add nsw i32 %.033.lcssa, -1
  %wide.trip.count = zext nneg i32 %86 to i64
  br label %.lr.ph59

.lr.ph59:                                         ; preds = %.lr.ph59.preheader, %90
  %indvars.iv75 = phi i64 [ 0, %.lr.ph59.preheader ], [ %indvars.iv.next76, %90 ]
  %87 = getelementptr inbounds [3 x i8], ptr %4, i64 0, i64 %indvars.iv75
  %88 = load i8, ptr %87, align 1
  %89 = invoke noundef nonnull align 8 dereferenceable(32) ptr @_ZNSt7__cxx1112basic_stringIcSt11char_traitsIcESaIcEEpLEc(ptr noundef nonnull align 8 dereferenceable(32) %0, i8 noundef signext %88)
          to label %90 unwind label %.loopexit41

90:                                               ; preds = %.lr.ph59
  %indvars.iv.next76 = add nuw nsw i64 %indvars.iv75, 1
  %exitcond78.not = icmp eq i64 %indvars.iv.next76, %wide.trip.count
  br i1 %exitcond78.not, label %.loopexit, label %.lr.ph59, !llvm.loop !42

.loopexit:                                        ; preds = %90, %2, %65, %.critedge
  ret void
}